target datalayout = "e-m:e-p270:32:32-p271:32:32-p272:64:64-i64:64-i128:128-f80:128-n8:16:32:64-S128"
target triple = "x86_64-pc-linux-gnu"

%"struct.memarena::arena_chunk" = type { ptr, i64, i64 }
%class.memarena = type { %"struct.memarena::arena_chunk", ptr, i32, i64, i64 }
%"class.memarena::chunk_iterator" = type <{ ptr, i32, [4 x i8] }>

; Function Attrs: mustprogress nounwind uwtable
define noundef zeroext i1 @_ZNK8memarena14chunk_iterator4moreEv(ptr noundef nonnull align 8 dereferenceable(12) %0) #2 align 2 {
  %2 = alloca i1, align 1
  %3 = alloca ptr, align 8
  store ptr %0, ptr %3, align 8, !tbaa !35
  %4 = load ptr, ptr %3, align 8
  %5 = getelementptr inbounds nuw %"class.memarena::chunk_iterator", ptr %4, i32 0, i32 1
  %6 = load i32, ptr %5, align 8, !tbaa !37
  %7 = icmp slt i32 %6, 0
  br i1 %7, label %8, label %15

8:                                                ; preds = %1
  %9 = getelementptr inbounds nuw %"class.memarena::chunk_iterator", ptr %4, i32 0, i32 0
  %10 = load ptr, ptr %9, align 8, !tbaa !39
  %11 = getelementptr inbounds nuw %class.memarena, ptr %10, i32 0, i32 0
  %12 = getelementptr inbounds nuw %"struct.memarena::arena_chunk", ptr %11, i32 0, i32 0
  %13 = load ptr, ptr %12, align 8, !tbaa !23
  %14 = icmp ne ptr %13, null
  store i1 %14, ptr %2, align 1
  br label %23

15:                                               ; preds = %1
  %16 = getelementptr inbounds nuw %"class.memarena::chunk_iterator", ptr %4, i32 0, i32 1
  %17 = load i32, ptr %16, align 8, !tbaa !37
  %18 = getelementptr inbounds nuw %"class.memarena::chunk_iterator", ptr %4, i32 0, i32 0
  %19 = load ptr, ptr %18, align 8, !tbaa !39
  %20 = getelementptr inbounds nuw %class.memarena, ptr %19, i32 0, i32 2
  %21 = load i32, ptr %20, align 8, !tbaa !21
  %22 = icmp slt i32 %17, %21
  store i1 %22, ptr %2, align 1
  br label %23

23:                                               ; preds = %15, %8
  %24 = load i1, ptr %2, align 1
  ret i1 %24
}