; Function Attrs: mustprogress nofree norecurse nosync nounwind willreturn memory(read, inaccessiblemem: none) uwtable
define noundef zeroext i1 @_ZNK8memarena14chunk_iterator4moreEv(ptr noundef nonnull readonly align 8 captures(none) dereferenceable(12) %0) local_unnamed_addr #6 align 2 {
  %2 = getelementptr inbounds nuw i8, ptr %0, i64 8
  %3 = load i32, ptr %2, align 8, !tbaa !27
  %4 = icmp slt i32 %3, 0
  %5 = load ptr, ptr %0, align 8, !tbaa !30
  br i1 %4, label %6, label %9

6:                                                ; preds = %1
  %7 = load ptr, ptr %5, align 8, !tbaa !16
  %8 = icmp ne ptr %7, null
  br label %13

9:                                                ; preds = %1
  %10 = getelementptr inbounds nuw i8, ptr %5, i64 32
  %11 = load i32, ptr %10, align 8, !tbaa !14
  %12 = icmp slt i32 %3, %11
  br label %13

13:                                               ; preds = %9, %6
  %.0 = phi i1 [ %8, %6 ], [ %12, %9 ]
  ret i1 %.0
}